; Function Attrs: mustprogress nounwind uwtable
define hidden void @_ZN10MethodData23clean_weak_method_linksEv(ptr noundef nonnull align 8 dereferenceable(312) %0) local_unnamed_addr #2 align 2 {
_ZN11MutexLockerD2Ev.exit:
  %1 = alloca %class.CleanExtraDataMethodClosure, align 8
  %2 = tail call align 8 ptr @llvm.threadlocal.address.p0(ptr align 8 @_ZN6Thread12_thr_currentE)
  %3 = load ptr, ptr %2, align 8
  %4 = getelementptr inbounds i8, ptr %3, i64 800
  %5 = load ptr, ptr %4, align 8
  %6 = getelementptr inbounds i8, ptr %5, i64 24
  %7 = load ptr, ptr %6, align 8
  %8 = getelementptr inbounds i8, ptr %5, i64 32
  %9 = load ptr, ptr %8, align 8
  %10 = getelementptr inbounds i8, ptr %5, i64 40
  %11 = load ptr, ptr %10, align 8
  %12 = getelementptr inbounds i8, ptr %5, i64 8
  %13 = load i64, ptr %12, align 8
  store ptr getelementptr inbounds inrange(-16, 8) (i8, ptr @_ZTV27CleanExtraDataMethodClosure, i64 16), ptr %1, align 8
  %14 = getelementptr inbounds i8, ptr %0, i64 24
  tail call void @_ZN5Mutex28lock_without_safepoint_checkEv(ptr noundef nonnull align 8 dereferenceable(104) %14) #20
  call void @_ZN10MethodData16clean_extra_dataEP21CleanExtraDataClosure(ptr noundef nonnull align 8 dereferenceable(312) %0, ptr noundef nonnull %1)
  call void @_ZN5Mutex6unlockEv(ptr noundef nonnull align 8 dereferenceable(104) %14) #20
  %15 = load ptr, ptr %7, align 8
  %.not.i.i.i.i = icmp eq ptr %15, null
  br i1 %.not.i.i.i.i, label %17, label %16

16:                                               ; preds = %_ZN11MutexLockerD2Ev.exit
  call void @_ZN5Arena17set_size_in_bytesEm(ptr noundef nonnull align 8 dereferenceable(48) %5, i64 noundef %13) #20
  call void @_ZN5Chunk9next_chopEPS_(ptr noundef nonnull %7) #20
  br label %17

17:                                               ; preds = %16, %_ZN11MutexLockerD2Ev.exit
  %18 = load ptr, ptr %8, align 8
  %.not8.i.i.i.i = icmp eq ptr %18, %9
  br i1 %.not8.i.i.i.i, label %_ZN12ResourceMarkD2Ev.exit, label %19

19:                                               ; preds = %17
  store ptr %7, ptr %6, align 8
  store ptr %9, ptr %8, align 8
  store ptr %11, ptr %10, align 8
  br label %_ZN12ResourceMarkD2Ev.exit

_ZN12ResourceMarkD2Ev.exit:                       ; preds = %17, %19
  ret void
}